; Function Attrs: nounwind uwtable
define dso_local void @ACLFreeUserAndKillClients(ptr noundef %0) local_unnamed_addr #0 {
  %2 = alloca %struct.listIter, align 8
  call void @llvm.lifetime.start.p0(i64 16, ptr nonnull %2) #25
  %3 = load ptr, ptr getelementptr inbounds nuw (i8, ptr @server, i64 1432), align 8, !tbaa !92
  call void @listRewind(ptr noundef %3, ptr noundef nonnull %2) #25
  %4 = call ptr @listNext(ptr noundef nonnull %2) #25
  %.not5 = icmp eq ptr %4, null
  br i1 %.not5, label %._crit_edge, label %.lr.ph

.lr.ph:                                           ; preds = %1, %12
  %5 = phi ptr [ %13, %12 ], [ %4, %1 ]
  %6 = getelementptr inbounds nuw i8, ptr %5, i64 16
  %7 = load ptr, ptr %6, align 8, !tbaa !85
  %8 = getelementptr inbounds nuw i8, ptr %7, i64 160
  %9 = load ptr, ptr %8, align 8, !tbaa !93
  %10 = icmp eq ptr %9, %0
  br i1 %10, label %11, label %12

11:                                               ; preds = %.lr.ph
  call void @deauthenticateAndCloseClient(ptr noundef nonnull %7) #25
  br label %12

12:                                               ; preds = %11, %.lr.ph
  %13 = call ptr @listNext(ptr noundef nonnull %2) #25
  %.not = icmp eq ptr %13, null
  br i1 %.not, label %._crit_edge, label %.lr.ph, !llvm.loop !101

._crit_edge:                                      ; preds = %12, %1
  %14 = load ptr, ptr %0, align 8, !tbaa !88
  call void @sdsfree(ptr noundef %14) #25
  %15 = getelementptr inbounds nuw i8, ptr %0, i64 32
  %16 = load ptr, ptr %15, align 8, !tbaa !91
  %.not.i = icmp eq ptr %16, null
  br i1 %.not.i, label %ACLFreeUser.exit, label %17

17:                                               ; preds = %._crit_edge
  call void @decrRefCount(ptr noundef nonnull %16) #25
  store ptr null, ptr %15, align 8, !tbaa !91
  br label %ACLFreeUser.exit

ACLFreeUser.exit:                                 ; preds = %._crit_edge, %17
  %18 = getelementptr inbounds nuw i8, ptr %0, i64 16
  %19 = load ptr, ptr %18, align 8, !tbaa !90
  call void @listRelease(ptr noundef %19) #25
  %20 = getelementptr inbounds nuw i8, ptr %0, i64 24
  %21 = load ptr, ptr %20, align 8, !tbaa !79
  call void @listRelease(ptr noundef %21) #25
  call void @zfree(ptr noundef nonnull %0) #25
  call void @llvm.lifetime.end.p0(i64 16, ptr nonnull %2) #25
  ret void
}